target datalayout = "e-m:e-p270:32:32-p271:32:32-p272:64:64-i64:64-i128:128-f80:128-n8:16:32:64-S128"
target triple = "x86_64-pc-linux-gnu"

%struct._generic_SUNNonlinearSolver = type { ptr, ptr, ptr }
%struct._generic_SUNNonlinearSolver_Ops = type { ptr, ptr, ptr, ptr, ptr, ptr, ptr, ptr, ptr, ptr, ptr, ptr, ptr }
%struct.CVodeMemRec = type { ptr, double, ptr, ptr, i32, i32, double, double, ptr, i32, i32, ptr, ptr, i32, i32, ptr, i32, i32, double, double, ptr, i32, i32, i32, i32, ptr, ptr, ptr, i32, i32, ptr, ptr, ptr, i32, double, i32, i32, double, ptr, ptr, ptr, i32, ptr, ptr, i32, i32, i32, double, ptr, ptr, ptr, [13 x ptr], ptr, ptr, ptr, ptr, ptr, ptr, ptr, ptr, ptr, [13 x ptr], ptr, ptr, ptr, ptr, [13 x ptr], ptr, ptr, ptr, ptr, ptr, i32, [13 x ptr], ptr, ptr, ptr, ptr, ptr, i32, i32, double, i32, i32, i32, i32, i32, double, double, double, double, double, double, double, double, [14 x double], [6 x double], [13 x double], double, double, double, double, double, double, double, double, i32, double, double, i32, double, double, ptr, i32, i64, i32, i32, i32, double, double, double, double, double, double, double, double, double, double, double, double, i64, i32, i64, i64, i64, i64, i64, i64, i64, i64, i64, ptr, i64, i64, ptr, i64, i64, ptr, i64, i64, i64, i64, i64, i64, i32, double, double, double, i64, i64, i64, i64, i64, i64, ptr, i32, ptr, i32, ptr, i32, ptr, i32, i32, i64, i32, ptr, i32, ptr, ptr, ptr, ptr, ptr, ptr, i32, i32, ptr, ptr, ptr, ptr, ptr, i64, double, i32, i32, i64, double, double, double, i32, i32, double, i32, i32, i32, i32, i32, i32, i32, i32, i32, i32, i32, i32, i32, i32, i32, i32, ptr, i64, i32, [6 x [4 x double]], i32, i64, ptr, i32, ptr, ptr, double, double, double, ptr, ptr, ptr, double, double, i32, i32, i64, ptr, i32, ptr, i32, i32, [13 x double], ptr, ptr, ptr, i32, ptr, i32 }

@__func__.CVodeSetNonlinearSolverSensStg1 = private unnamed_addr constant [32 x i8] c"CVodeSetNonlinearSolverSensStg1\00", align 1
@.str = private unnamed_addr constant [124 x i8] c"generated/home/dtcxzyw/WorkSpace/Projects/compilers/llvm-opt-benchmark/bench/sundials/sundials/src/cvodes/cvodes_nls_stg1.c\00", align 1
@.str.1 = private unnamed_addr constant [26 x i8] c"cvode_mem = NULL illegal.\00", align 1
@.str.2 = private unnamed_addr constant [21 x i8] c"NLS must be non-NULL\00", align 1
@.str.3 = private unnamed_addr constant [41 x i8] c"NLS does not support required operations\00", align 1
@.str.4 = private unnamed_addr constant [44 x i8] c"Forward sensitivity analysis not activated.\00", align 1
@.str.5 = private unnamed_addr constant [49 x i8] c"Sensitivity solution method is not CV_STAGGERED1\00", align 1
@.str.6 = private unnamed_addr constant [30 x i8] c"Invalid nonlinear solver type\00", align 1
@.str.7 = private unnamed_addr constant [41 x i8] c"Setting nonlinear system function failed\00", align 1
@.str.8 = private unnamed_addr constant [41 x i8] c"Setting convergence test function failed\00", align 1
@.str.9 = private unnamed_addr constant [54 x i8] c"Setting maximum number of nonlinear iterations failed\00", align 1

; Function Attrs: nounwind uwtable
define i32 @CVodeSetNonlinearSolverSensStg1(ptr noundef %0, ptr noundef %1) #0 {
  %3 = alloca i32, align 4
  %4 = alloca ptr, align 8
  %5 = alloca ptr, align 8
  %6 = alloca ptr, align 8
  %7 = alloca i32, align 4
  store ptr %0, ptr %4, align 8
  store ptr %1, ptr %5, align 8
  %8 = load ptr, ptr %4, align 8
  %9 = icmp eq ptr %8, null
  br i1 %9, label %10, label %11

10:                                               ; preds = %2
  call void (ptr, i32, i32, ptr, ptr, ptr, ...) @cvProcessError(ptr noundef null, i32 noundef -21, i32 noundef 46, ptr noundef @__func__.CVodeSetNonlinearSolverSensStg1, ptr noundef @.str, ptr noundef @.str.1)
  store i32 -21, ptr %3, align 4
  br label %121

11:                                               ; preds = %2
  %12 = load ptr, ptr %4, align 8
  store ptr %12, ptr %6, align 8
  %13 = load ptr, ptr %5, align 8
  %14 = icmp eq ptr %13, null
  br i1 %14, label %15, label %16

15:                                               ; preds = %11
  call void (ptr, i32, i32, ptr, ptr, ptr, ...) @cvProcessError(ptr noundef null, i32 noundef -22, i32 noundef 54, ptr noundef @__func__.CVodeSetNonlinearSolverSensStg1, ptr noundef @.str, ptr noundef @.str.2)
  store i32 -22, ptr %3, align 4
  br label %121

16:                                               ; preds = %11
  %17 = load ptr, ptr %5, align 8
  %18 = getelementptr inbounds %struct._generic_SUNNonlinearSolver, ptr %17, i32 0, i32 1
  %19 = load ptr, ptr %18, align 8
  %20 = getelementptr inbounds %struct._generic_SUNNonlinearSolver_Ops, ptr %19, i32 0, i32 0
  %21 = load ptr, ptr %20, align 8
  %22 = icmp eq ptr %21, null
  br i1 %22, label %37, label %23

23:                                               ; preds = %16
  %24 = load ptr, ptr %5, align 8
  %25 = getelementptr inbounds %struct._generic_SUNNonlinearSolver, ptr %24, i32 0, i32 1
  %26 = load ptr, ptr %25, align 8
  %27 = getelementptr inbounds %struct._generic_SUNNonlinearSolver_Ops, ptr %26, i32 0, i32 3
  %28 = load ptr, ptr %27, align 8
  %29 = icmp eq ptr %28, null
  br i1 %29, label %37, label %30

30:                                               ; preds = %23
  %31 = load ptr, ptr %5, align 8
  %32 = getelementptr inbounds %struct._generic_SUNNonlinearSolver, ptr %31, i32 0, i32 1
  %33 = load ptr, ptr %32, align 8
  %34 = getelementptr inbounds %struct._generic_SUNNonlinearSolver_Ops, ptr %33, i32 0, i32 5
  %35 = load ptr, ptr %34, align 8
  %36 = icmp eq ptr %35, null
  br i1 %36, label %37, label %39

37:                                               ; preds = %30, %23, %16
  %38 = load ptr, ptr %6, align 8
  call void (ptr, i32, i32, ptr, ptr, ptr, ...) @cvProcessError(ptr noundef %38, i32 noundef -22, i32 noundef 63, ptr noundef @__func__.CVodeSetNonlinearSolverSensStg1, ptr noundef @.str, ptr noundef @.str.3)
  store i32 -22, ptr %3, align 4
  br label %121

39:                                               ; preds = %30
  %40 = load ptr, ptr %6, align 8
  %41 = getelementptr inbounds %struct.CVodeMemRec, ptr %40, i32 0, i32 22
  %42 = load i32, ptr %41, align 4
  %43 = icmp ne i32 %42, 0
  br i1 %43, label %46, label %44

44:                                               ; preds = %39
  %45 = load ptr, ptr %6, align 8
  call void (ptr, i32, i32, ptr, ptr, ptr, ...) @cvProcessError(ptr noundef %45, i32 noundef -22, i32 noundef 71, ptr noundef @__func__.CVodeSetNonlinearSolverSensStg1, ptr noundef @.str, ptr noundef @.str.4)
  store i32 -22, ptr %3, align 4
  br label %121

46:                                               ; preds = %39
  %47 = load ptr, ptr %6, align 8
  %48 = getelementptr inbounds %struct.CVodeMemRec, ptr %47, i32 0, i32 24
  %49 = load i32, ptr %48, align 4
  %50 = icmp ne i32 %49, 3
  br i1 %50, label %51, label %53

51:                                               ; preds = %46
  %52 = load ptr, ptr %6, align 8
  call void (ptr, i32, i32, ptr, ptr, ptr, ...) @cvProcessError(ptr noundef %52, i32 noundef -22, i32 noundef 79, ptr noundef @__func__.CVodeSetNonlinearSolverSensStg1, ptr noundef @.str, ptr noundef @.str.5)
  store i32 -22, ptr %3, align 4
  br label %121

53:                                               ; preds = %46
  %54 = load ptr, ptr %6, align 8
  %55 = getelementptr inbounds %struct.CVodeMemRec, ptr %54, i32 0, i32 170
  %56 = load ptr, ptr %55, align 8
  %57 = icmp ne ptr %56, null
  br i1 %57, label %58, label %68

58:                                               ; preds = %53
  %59 = load ptr, ptr %6, align 8
  %60 = getelementptr inbounds %struct.CVodeMemRec, ptr %59, i32 0, i32 171
  %61 = load i32, ptr %60, align 8
  %62 = icmp ne i32 %61, 0
  br i1 %62, label %63, label %68

63:                                               ; preds = %58
  %64 = load ptr, ptr %6, align 8
  %65 = getelementptr inbounds %struct.CVodeMemRec, ptr %64, i32 0, i32 170
  %66 = load ptr, ptr %65, align 8
  %67 = call i32 @SUNNonlinSolFree(ptr noundef %66)
  store i32 %67, ptr %7, align 4
  br label %68

68:                                               ; preds = %63, %58, %53
  %69 = load ptr, ptr %5, align 8
  %70 = load ptr, ptr %6, align 8
  %71 = getelementptr inbounds %struct.CVodeMemRec, ptr %70, i32 0, i32 170
  store ptr %69, ptr %71, align 8
  %72 = load ptr, ptr %6, align 8
  %73 = getelementptr inbounds %struct.CVodeMemRec, ptr %72, i32 0, i32 171
  store i32 0, ptr %73, align 8
  %74 = load ptr, ptr %5, align 8
  %75 = call i32 @SUNNonlinSolGetType(ptr noundef %74)
  %76 = icmp eq i32 %75, 0
  br i1 %76, label %77, label %82

77:                                               ; preds = %68
  %78 = load ptr, ptr %6, align 8
  %79 = getelementptr inbounds %struct.CVodeMemRec, ptr %78, i32 0, i32 170
  %80 = load ptr, ptr %79, align 8
  %81 = call i32 @SUNNonlinSolSetSysFn(ptr noundef %80, ptr noundef @cvNlsResidualSensStg1)
  store i32 %81, ptr %7, align 4
  br label %94

82:                                               ; preds = %68
  %83 = load ptr, ptr %5, align 8
  %84 = call i32 @SUNNonlinSolGetType(ptr noundef %83)
  %85 = icmp eq i32 %84, 1
  br i1 %85, label %86, label %91

86:                                               ; preds = %82
  %87 = load ptr, ptr %6, align 8
  %88 = getelementptr inbounds %struct.CVodeMemRec, ptr %87, i32 0, i32 170
  %89 = load ptr, ptr %88, align 8
  %90 = call i32 @SUNNonlinSolSetSysFn(ptr noundef %89, ptr noundef @cvNlsFPFunctionSensStg1)
  store i32 %90, ptr %7, align 4
  br label %93

91:                                               ; preds = %82
  %92 = load ptr, ptr %6, align 8
  call void (ptr, i32, i32, ptr, ptr, ptr, ...) @cvProcessError(ptr noundef %92, i32 noundef -22, i32 noundef 108, ptr noundef @__func__.CVodeSetNonlinearSolverSensStg1, ptr noundef @.str, ptr noundef @.str.6)
  store i32 -22, ptr %3, align 4
  br label %121

93:                                               ; preds = %86
  br label %94

94:                                               ; preds = %93, %77
  %95 = load i32, ptr %7, align 4
  %96 = icmp ne i32 %95, 0
  br i1 %96, label %97, label %99

97:                                               ; preds = %94
  %98 = load ptr, ptr %6, align 8
  call void (ptr, i32, i32, ptr, ptr, ptr, ...) @cvProcessError(ptr noundef %98, i32 noundef -22, i32 noundef 115, ptr noundef @__func__.CVodeSetNonlinearSolverSensStg1, ptr noundef @.str, ptr noundef @.str.7)
  store i32 -22, ptr %3, align 4
  br label %121

99:                                               ; preds = %94
  %100 = load ptr, ptr %6, align 8
  %101 = getelementptr inbounds %struct.CVodeMemRec, ptr %100, i32 0, i32 170
  %102 = load ptr, ptr %101, align 8
  %103 = load ptr, ptr %4, align 8
  %104 = call i32 @SUNNonlinSolSetConvTestFn(ptr noundef %102, ptr noundef @cvNlsConvTestSensStg1, ptr noundef %103)
  store i32 %104, ptr %7, align 4
  %105 = load i32, ptr %7, align 4
  %106 = icmp ne i32 %105, 0
  br i1 %106, label %107, label %109

107:                                              ; preds = %99
  %108 = load ptr, ptr %6, align 8
  call void (ptr, i32, i32, ptr, ptr, ptr, ...) @cvProcessError(ptr noundef %108, i32 noundef -22, i32 noundef 125, ptr noundef @__func__.CVodeSetNonlinearSolverSensStg1, ptr noundef @.str, ptr noundef @.str.8)
  store i32 -22, ptr %3, align 4
  br label %121

109:                                              ; preds = %99
  %110 = load ptr, ptr %6, align 8
  %111 = getelementptr inbounds %struct.CVodeMemRec, ptr %110, i32 0, i32 170
  %112 = load ptr, ptr %111, align 8
  %113 = call i32 @SUNNonlinSolSetMaxIters(ptr noundef %112, i32 noundef 3)
  store i32 %113, ptr %7, align 4
  %114 = load i32, ptr %7, align 4
  %115 = icmp ne i32 %114, 0
  br i1 %115, label %116, label %118

116:                                              ; preds = %109
  %117 = load ptr, ptr %6, align 8
  call void (ptr, i32, i32, ptr, ptr, ptr, ...) @cvProcessError(ptr noundef %117, i32 noundef -22, i32 noundef 134, ptr noundef @__func__.CVodeSetNonlinearSolverSensStg1, ptr noundef @.str, ptr noundef @.str.9)
  store i32 -22, ptr %3, align 4
  br label %121

118:                                              ; preds = %109
  %119 = load ptr, ptr %6, align 8
  %120 = getelementptr inbounds %struct.CVodeMemRec, ptr %119, i32 0, i32 109
  store i32 0, ptr %120, align 8
  store i32 0, ptr %3, align 4
  br label %121

121:                                              ; preds = %118, %116, %107, %97, %91, %51, %44, %37, %15, %10
  %122 = load i32, ptr %3, align 4
  ret i32 %122
}