; Function Attrs: nounwind uwtable
define range(i32 -22, 1) i32 @CVodeSetNonlinearSolverSensStg1(ptr noundef %0, ptr noundef %1) local_unnamed_addr #0 {
  %3 = icmp eq ptr %0, null
  br i1 %3, label %4, label %5

4:                                                ; preds = %2
  tail call void (ptr, i32, i32, ptr, ptr, ptr, ...) @cvProcessError(ptr noundef null, i32 noundef -21, i32 noundef 46, ptr noundef nonnull @__func__.CVodeSetNonlinearSolverSensStg1, ptr noundef nonnull @.str, ptr noundef nonnull @.str.1) #2
  br label %60

5:                                                ; preds = %2
  %6 = icmp eq ptr %1, null
  br i1 %6, label %7, label %8

7:                                                ; preds = %5
  tail call void (ptr, i32, i32, ptr, ptr, ptr, ...) @cvProcessError(ptr noundef null, i32 noundef -22, i32 noundef 54, ptr noundef nonnull @__func__.CVodeSetNonlinearSolverSensStg1, ptr noundef nonnull @.str, ptr noundef nonnull @.str.2) #2
  br label %60

8:                                                ; preds = %5
  %9 = getelementptr inbounds nuw i8, ptr %1, i64 8
  %10 = load ptr, ptr %9, align 8
  %11 = load ptr, ptr %10, align 8
  %12 = icmp eq ptr %11, null
  br i1 %12, label %21, label %13

13:                                               ; preds = %8
  %14 = getelementptr inbounds nuw i8, ptr %10, i64 24
  %15 = load ptr, ptr %14, align 8
  %16 = icmp eq ptr %15, null
  br i1 %16, label %21, label %17

17:                                               ; preds = %13
  %18 = getelementptr inbounds nuw i8, ptr %10, i64 40
  %19 = load ptr, ptr %18, align 8
  %20 = icmp eq ptr %19, null
  br i1 %20, label %21, label %22

21:                                               ; preds = %17, %13, %8
  tail call void (ptr, i32, i32, ptr, ptr, ptr, ...) @cvProcessError(ptr noundef nonnull %0, i32 noundef -22, i32 noundef 63, ptr noundef nonnull @__func__.CVodeSetNonlinearSolverSensStg1, ptr noundef nonnull @.str, ptr noundef nonnull @.str.3) #2
  br label %60

22:                                               ; preds = %17
  %23 = getelementptr inbounds nuw i8, ptr %0, i64 140
  %24 = load i32, ptr %23, align 4
  %.not = icmp eq i32 %24, 0
  br i1 %.not, label %25, label %26

25:                                               ; preds = %22
  tail call void (ptr, i32, i32, ptr, ptr, ptr, ...) @cvProcessError(ptr noundef nonnull %0, i32 noundef -22, i32 noundef 71, ptr noundef nonnull @__func__.CVodeSetNonlinearSolverSensStg1, ptr noundef nonnull @.str, ptr noundef nonnull @.str.4) #2
  br label %60

26:                                               ; preds = %22
  %27 = getelementptr inbounds nuw i8, ptr %0, i64 148
  %28 = load i32, ptr %27, align 4
  %.not36 = icmp eq i32 %28, 3
  br i1 %.not36, label %30, label %29

29:                                               ; preds = %26
  tail call void (ptr, i32, i32, ptr, ptr, ptr, ...) @cvProcessError(ptr noundef nonnull %0, i32 noundef -22, i32 noundef 79, ptr noundef nonnull @__func__.CVodeSetNonlinearSolverSensStg1, ptr noundef nonnull @.str, ptr noundef nonnull @.str.5) #2
  br label %60

30:                                               ; preds = %26
  %31 = getelementptr inbounds nuw i8, ptr %0, i64 1880
  %32 = load ptr, ptr %31, align 8
  %.not37 = icmp eq ptr %32, null
  br i1 %.not37, label %38, label %33

33:                                               ; preds = %30
  %34 = getelementptr inbounds nuw i8, ptr %0, i64 1888
  %35 = load i32, ptr %34, align 8
  %.not38 = icmp eq i32 %35, 0
  br i1 %.not38, label %38, label %36

36:                                               ; preds = %33
  %37 = tail call i32 @SUNNonlinSolFree(ptr noundef nonnull %32) #2
  br label %38

38:                                               ; preds = %36, %33, %30
  store ptr %1, ptr %31, align 8
  %39 = getelementptr inbounds nuw i8, ptr %0, i64 1888
  store i32 0, ptr %39, align 8
  %40 = tail call i32 @SUNNonlinSolGetType(ptr noundef nonnull %1) #2
  %41 = icmp eq i32 %40, 0
  br i1 %41, label %46, label %42

42:                                               ; preds = %38
  %43 = tail call i32 @SUNNonlinSolGetType(ptr noundef nonnull %1) #2
  %44 = icmp eq i32 %43, 1
  br i1 %44, label %46, label %45

45:                                               ; preds = %42
  tail call void (ptr, i32, i32, ptr, ptr, ptr, ...) @cvProcessError(ptr noundef nonnull %0, i32 noundef -22, i32 noundef 108, ptr noundef nonnull @__func__.CVodeSetNonlinearSolverSensStg1, ptr noundef nonnull @.str, ptr noundef nonnull @.str.6) #2
  br label %60

46:                                               ; preds = %42, %38
  %cvNlsFPFunctionSensStg1.sink = phi ptr [ @cvNlsResidualSensStg1, %38 ], [ @cvNlsFPFunctionSensStg1, %42 ]
  %47 = load ptr, ptr %31, align 8
  %48 = tail call i32 @SUNNonlinSolSetSysFn(ptr noundef %47, ptr noundef nonnull %cvNlsFPFunctionSensStg1.sink) #2
  %.not39 = icmp eq i32 %48, 0
  br i1 %.not39, label %50, label %49

49:                                               ; preds = %46
  tail call void (ptr, i32, i32, ptr, ptr, ptr, ...) @cvProcessError(ptr noundef nonnull %0, i32 noundef -22, i32 noundef 115, ptr noundef nonnull @__func__.CVodeSetNonlinearSolverSensStg1, ptr noundef nonnull @.str, ptr noundef nonnull @.str.7) #2
  br label %60

50:                                               ; preds = %46
  %51 = load ptr, ptr %31, align 8
  %52 = tail call i32 @SUNNonlinSolSetConvTestFn(ptr noundef %51, ptr noundef nonnull @cvNlsConvTestSensStg1, ptr noundef nonnull %0) #2
  %.not40 = icmp eq i32 %52, 0
  br i1 %.not40, label %54, label %53

53:                                               ; preds = %50
  tail call void (ptr, i32, i32, ptr, ptr, ptr, ...) @cvProcessError(ptr noundef nonnull %0, i32 noundef -22, i32 noundef 125, ptr noundef nonnull @__func__.CVodeSetNonlinearSolverSensStg1, ptr noundef nonnull @.str, ptr noundef nonnull @.str.8) #2
  br label %60

54:                                               ; preds = %50
  %55 = load ptr, ptr %31, align 8
  %56 = tail call i32 @SUNNonlinSolSetMaxIters(ptr noundef %55, i32 noundef 3) #2
  %.not41 = icmp eq i32 %56, 0
  br i1 %.not41, label %58, label %57

57:                                               ; preds = %54
  tail call void (ptr, i32, i32, ptr, ptr, ptr, ...) @cvProcessError(ptr noundef nonnull %0, i32 noundef -22, i32 noundef 134, ptr noundef nonnull @__func__.CVodeSetNonlinearSolverSensStg1, ptr noundef nonnull @.str, ptr noundef nonnull @.str.9) #2
  br label %60

58:                                               ; preds = %54
  %59 = getelementptr inbounds nuw i8, ptr %0, i64 1400
  store i32 0, ptr %59, align 8
  br label %60

60:                                               ; preds = %58, %57, %53, %49, %45, %29, %25, %21, %7, %4
  %.032 = phi i32 [ -21, %4 ], [ -22, %7 ], [ -22, %21 ], [ -22, %29 ], [ -22, %49 ], [ -22, %53 ], [ -22, %57 ], [ 0, %58 ], [ -22, %45 ], [ -22, %25 ]
  ret i32 %.032
}